; Function Attrs: nounwind uwtable
define internal range(i32 -11, 1) i32 @FN_Down_Field(ptr noundef %0) #0 {
  %2 = getelementptr inbounds nuw i8, ptr %0, i64 72
  %3 = load ptr, ptr %2, align 8, !tbaa !14
  %4 = getelementptr inbounds nuw i8, ptr %3, i64 6
  %5 = load i16, ptr %4, align 2, !tbaa !28
  %6 = getelementptr inbounds nuw i8, ptr %3, i64 8
  %7 = load i16, ptr %6, align 8, !tbaa !30
  br label %8

8:                                                ; preds = %19, %1
  %.0.i = phi ptr [ %3, %1 ], [ %11, %19 ]
  br label %9

9:                                                ; preds = %9, %8
  %.0.i.i = phi ptr [ %.0.i, %8 ], [ %11, %9 ]
  %10 = getelementptr inbounds nuw i8, ptr %.0.i.i, i64 56
  %11 = load ptr, ptr %10, align 8, !tbaa !87
  %12 = getelementptr inbounds nuw i8, ptr %11, i64 48
  %13 = load i32, ptr %12, align 8, !tbaa !19
  %14 = and i32 %13, 3
  %15 = icmp eq i32 %14, 3
  %.not.i.i = icmp eq ptr %11, %.0.i
  %or.cond.i.i = or i1 %.not.i.i, %15
  br i1 %or.cond.i.i, label %Sorted_Next_Field.exit.i, label %9, !llvm.loop !110

Sorted_Next_Field.exit.i:                         ; preds = %9
  %16 = getelementptr inbounds nuw i8, ptr %11, i64 6
  %17 = load i16, ptr %16, align 2, !tbaa !28
  %18 = icmp eq i16 %17, %5
  br i1 %18, label %19, label %.lr.ph.i

19:                                               ; preds = %Sorted_Next_Field.exit.i
  %20 = getelementptr inbounds nuw i8, ptr %11, i64 8
  %21 = load i16, ptr %20, align 8, !tbaa !30
  %.not.i = icmp eq i16 %21, %7
  br i1 %.not.i, label %Down_Neighbour_Field.exit, label %8, !llvm.loop !118

.lr.ph.i:                                         ; preds = %Sorted_Next_Field.exit.i, %Sorted_Next_Field.exit27.i
  %.239.i = phi ptr [ %26, %Sorted_Next_Field.exit27.i ], [ %11, %Sorted_Next_Field.exit.i ]
  %22 = getelementptr inbounds nuw i8, ptr %.239.i, i64 8
  %23 = load i16, ptr %22, align 8, !tbaa !30
  %24 = icmp slt i16 %23, %7
  br i1 %24, label %.preheader.i, label %Down_Neighbour_Field.exit

.preheader.i:                                     ; preds = %.lr.ph.i, %.preheader.i
  %.0.i24.i = phi ptr [ %26, %.preheader.i ], [ %.239.i, %.lr.ph.i ]
  %25 = getelementptr inbounds nuw i8, ptr %.0.i24.i, i64 56
  %26 = load ptr, ptr %25, align 8, !tbaa !87
  %27 = getelementptr inbounds nuw i8, ptr %26, i64 48
  %28 = load i32, ptr %27, align 8, !tbaa !19
  %29 = and i32 %28, 3
  %30 = icmp eq i32 %29, 3
  %.not.i25.i = icmp eq ptr %26, %.239.i
  %or.cond.i26.i = or i1 %.not.i25.i, %30
  br i1 %or.cond.i26.i, label %Sorted_Next_Field.exit27.i, label %.preheader.i, !llvm.loop !110

Sorted_Next_Field.exit27.i:                       ; preds = %.preheader.i
  %31 = getelementptr inbounds nuw i8, ptr %26, i64 6
  %32 = load i16, ptr %31, align 2, !tbaa !28
  %33 = icmp eq i16 %32, %17
  br i1 %33, label %.lr.ph.i, label %.critedge2.i, !llvm.loop !119

.critedge2.i:                                     ; preds = %Sorted_Next_Field.exit27.i, %.critedge2.i
  %.0.i28.i = phi ptr [ %35, %.critedge2.i ], [ %26, %Sorted_Next_Field.exit27.i ]
  %34 = getelementptr inbounds nuw i8, ptr %.0.i28.i, i64 64
  %35 = load ptr, ptr %34, align 8, !tbaa !111
  %36 = getelementptr inbounds nuw i8, ptr %35, i64 48
  %37 = load i32, ptr %36, align 8, !tbaa !19
  %38 = and i32 %37, 3
  %39 = icmp eq i32 %38, 3
  %.not.i29.i = icmp eq ptr %35, %26
  %or.cond.i30.i = or i1 %.not.i29.i, %39
  br i1 %or.cond.i30.i, label %Down_Neighbour_Field.exit, label %.critedge2.i, !llvm.loop !112

Down_Neighbour_Field.exit:                        ; preds = %19, %.lr.ph.i, %.critedge2.i
  %.1.i = phi ptr [ %35, %.critedge2.i ], [ %.239.i, %.lr.ph.i ], [ %11, %19 ]
  %40 = tail call i32 @_nc_Set_Current_Field(ptr noundef %0, ptr noundef nonnull %.1.i)
  ret i32 %40
}